target datalayout = "e-m:e-p270:32:32-p271:32:32-p272:64:64-i64:64-i128:128-f80:128-n8:16:32:64-S128"
target triple = "x86_64-pc-linux-gnu"

%struct.dfvm_value_t = type { i32, %union.anon, i32 }
%union.anon = type { ptr }
%struct.epan_dfilter = type { ptr, i32, ptr, ptr, i32, ptr, ptr, ptr, ptr, ptr, ptr, ptr, ptr }
%struct._GPtrArray = type { ptr, i32 }
%struct.df_reference_t = type { ptr, ptr, i32 }
%struct.df_cell_t = type { ptr }
%struct._GSList = type { ptr, ptr }
%struct._drange = type { ptr, i8, i32, i32, i32 }
%struct._drange_node = type { i32, i32, i32, i32 }

@.str.57 = private unnamed_addr constant [8 x i8] c"DFilter\00", align 1
@.str.58 = private unnamed_addr constant [20 x i8] c"epan/dfilter/dfvm.c\00", align 1
@.str.60 = private unnamed_addr constant [31 x i8] c"assertion \22not reached\22 failed\00", align 1
@__func__.drange_contains_layer = private unnamed_addr constant [22 x i8] c"drange_contains_layer\00", align 1

; Function Attrs: nounwind uwtable
define internal zeroext i1 @drange_contains_layer(ptr noundef %0, i32 noundef %1, i32 noundef %2) #0 {
  %4 = alloca i1, align 1
  %5 = alloca ptr, align 8
  %6 = alloca i32, align 4
  %7 = alloca i32, align 4
  %8 = alloca ptr, align 8
  %9 = alloca ptr, align 8
  %10 = alloca i32, align 4
  %11 = alloca i32, align 4
  store ptr %0, ptr %5, align 8
  store i32 %1, ptr %6, align 4
  store i32 %2, ptr %7, align 4
  %12 = load ptr, ptr %5, align 8
  %13 = getelementptr inbounds %struct._drange, ptr %12, i32 0, i32 0
  %14 = load ptr, ptr %13, align 8
  store ptr %14, ptr %9, align 8
  br label %15

15:                                               ; preds = %79, %3
  %16 = load ptr, ptr %9, align 8
  %17 = icmp ne ptr %16, null
  br i1 %17, label %18, label %81

18:                                               ; preds = %15
  %19 = load ptr, ptr %9, align 8
  %20 = getelementptr inbounds %struct._GSList, ptr %19, i32 0, i32 0
  %21 = load ptr, ptr %20, align 8
  store ptr %21, ptr %8, align 8
  %22 = load ptr, ptr %8, align 8
  %23 = getelementptr inbounds %struct._drange_node, ptr %22, i32 0, i32 0
  %24 = load i32, ptr %23, align 4
  store i32 %24, ptr %10, align 4
  %25 = load i32, ptr %10, align 4
  %26 = icmp slt i32 %25, 0
  br i1 %26, label %27, label %32

27:                                               ; preds = %18
  %28 = load i32, ptr %7, align 4
  %29 = add i32 %28, 1
  %30 = load i32, ptr %10, align 4
  %31 = add i32 %30, %29
  store i32 %31, ptr %10, align 4
  br label %32

32:                                               ; preds = %27, %18
  %33 = load ptr, ptr %8, align 8
  %34 = getelementptr inbounds %struct._drange_node, ptr %33, i32 0, i32 3
  %35 = load i32, ptr %34, align 4
  %36 = icmp eq i32 %35, 1
  br i1 %36, label %37, label %44

37:                                               ; preds = %32
  %38 = load i32, ptr %10, align 4
  %39 = load ptr, ptr %8, align 8
  %40 = getelementptr inbounds %struct._drange_node, ptr %39, i32 0, i32 1
  %41 = load i32, ptr %40, align 4
  %42 = add i32 %38, %41
  %43 = sub i32 %42, 1
  store i32 %43, ptr %11, align 4
  br label %62

44:                                               ; preds = %32
  %45 = load ptr, ptr %8, align 8
  %46 = getelementptr inbounds %struct._drange_node, ptr %45, i32 0, i32 3
  %47 = load i32, ptr %46, align 4
  %48 = icmp eq i32 %47, 2
  br i1 %48, label %49, label %53

49:                                               ; preds = %44
  %50 = load ptr, ptr %8, align 8
  %51 = getelementptr inbounds %struct._drange_node, ptr %50, i32 0, i32 2
  %52 = load i32, ptr %51, align 4
  store i32 %52, ptr %11, align 4
  br label %61

53:                                               ; preds = %44
  %54 = load ptr, ptr %8, align 8
  %55 = getelementptr inbounds %struct._drange_node, ptr %54, i32 0, i32 3
  %56 = load i32, ptr %55, align 4
  %57 = icmp eq i32 %56, 3
  br i1 %57, label %58, label %59

58:                                               ; preds = %53
  store i32 2147483647, ptr %11, align 4
  br label %60

59:                                               ; preds = %53
  call void (ptr, i32, ptr, i64, ptr, ptr, ...) @ws_log_fatal_full(ptr noundef @.str.57, i32 noundef 7, ptr noundef @.str.58, i64 noundef 769, ptr noundef @__func__.drange_contains_layer, ptr noundef @.str.60) #5
  unreachable

60:                                               ; preds = %58
  br label %61

61:                                               ; preds = %60, %49
  br label %62

62:                                               ; preds = %61, %37
  %63 = load i32, ptr %6, align 4
  %64 = load i32, ptr %10, align 4
  %65 = icmp sge i32 %63, %64
  br i1 %65, label %66, label %71

66:                                               ; preds = %62
  %67 = load i32, ptr %6, align 4
  %68 = load i32, ptr %11, align 4
  %69 = icmp sle i32 %67, %68
  br i1 %69, label %70, label %71

70:                                               ; preds = %66
  store i1 true, ptr %4, align 1
  br label %82

71:                                               ; preds = %66, %62
  %72 = load ptr, ptr %9, align 8
  %73 = icmp ne ptr %72, null
  br i1 %73, label %74, label %78

74:                                               ; preds = %71
  %75 = load ptr, ptr %9, align 8
  %76 = getelementptr inbounds %struct._GSList, ptr %75, i32 0, i32 1
  %77 = load ptr, ptr %76, align 8
  br label %79

78:                                               ; preds = %71
  br label %79

79:                                               ; preds = %78, %74
  %80 = phi ptr [ %77, %74 ], [ null, %78 ]
  store ptr %80, ptr %9, align 8
  br label %15, !llvm.loop !25

81:                                               ; preds = %15
  store i1 false, ptr %4, align 1
  br label %82

82:                                               ; preds = %81, %70
  %83 = load i1, ptr %4, align 1
  ret i1 %83
}

; Function Attrs: nounwind uwtable
define internal void @filter_refs_fvalues(ptr noundef %0, ptr noundef %1, ptr noundef %2) #0 {
  %4 = alloca ptr, align 8
  %5 = alloca ptr, align 8
  %6 = alloca ptr, align 8
  %7 = alloca i32, align 4
  %8 = alloca ptr, align 8
  %9 = alloca i32, align 4
  %10 = alloca i8, align 1
  %11 = alloca i32, align 4
  %12 = alloca ptr, align 8
  %13 = alloca i32, align 4
  store ptr %0, ptr %4, align 8
  store ptr %1, ptr %5, align 8
  store ptr %2, ptr %6, align 8
  store ptr null, ptr %8, align 8
  store i32 -1, ptr %9, align 4
  store i8 0, ptr %10, align 1
  %14 = load ptr, ptr %5, align 8
  %15 = icmp ne ptr %14, null
  br i1 %15, label %16, label %21

16:                                               ; preds = %3
  %17 = load ptr, ptr %5, align 8
  %18 = getelementptr inbounds %struct._GPtrArray, ptr %17, i32 0, i32 1
  %19 = load i32, ptr %18, align 8
  %20 = icmp eq i32 %19, 0
  br i1 %20, label %21, label %22

21:                                               ; preds = %16, %3
  br label %92

22:                                               ; preds = %16
  %23 = load ptr, ptr %5, align 8
  %24 = getelementptr inbounds %struct._GPtrArray, ptr %23, i32 0, i32 0
  %25 = load ptr, ptr %24, align 8
  %26 = load ptr, ptr %5, align 8
  %27 = getelementptr inbounds %struct._GPtrArray, ptr %26, i32 0, i32 1
  %28 = load i32, ptr %27, align 8
  %29 = sub i32 %28, 1
  %30 = zext i32 %29 to i64
  %31 = getelementptr ptr, ptr %25, i64 %30
  %32 = load ptr, ptr %31, align 8
  store ptr %32, ptr %8, align 8
  %33 = load ptr, ptr %8, align 8
  %34 = getelementptr inbounds %struct.df_reference_t, ptr %33, i32 0, i32 2
  %35 = load i32, ptr %34, align 8
  store i32 %35, ptr %7, align 4
  store i32 0, ptr %11, align 4
  br label %36

36:                                               ; preds = %89, %22
  %37 = load i32, ptr %11, align 4
  %38 = load ptr, ptr %5, align 8
  %39 = getelementptr inbounds %struct._GPtrArray, ptr %38, i32 0, i32 1
  %40 = load i32, ptr %39, align 8
  %41 = icmp ult i32 %37, %40
  br i1 %41, label %42, label %92

42:                                               ; preds = %36
  %43 = load ptr, ptr %5, align 8
  %44 = getelementptr inbounds %struct._GPtrArray, ptr %43, i32 0, i32 0
  %45 = load ptr, ptr %44, align 8
  %46 = load i32, ptr %11, align 4
  %47 = zext i32 %46 to i64
  %48 = getelementptr ptr, ptr %45, i64 %47
  %49 = load ptr, ptr %48, align 8
  store ptr %49, ptr %12, align 8
  %50 = load ptr, ptr %12, align 8
  %51 = getelementptr inbounds %struct.df_reference_t, ptr %50, i32 0, i32 2
  %52 = load i32, ptr %51, align 8
  store i32 %52, ptr %13, align 4
  %53 = load ptr, ptr %6, align 8
  %54 = icmp eq ptr %53, null
  br i1 %54, label %55, label %60

55:                                               ; preds = %42
  %56 = load ptr, ptr %4, align 8
  %57 = load ptr, ptr %12, align 8
  %58 = getelementptr inbounds %struct.df_reference_t, ptr %57, i32 0, i32 1
  %59 = load ptr, ptr %58, align 8
  call void @df_cell_append(ptr noundef %56, ptr noundef %59)
  br label %89

60:                                               ; preds = %42
  %61 = load i32, ptr %9, align 4
  %62 = load i32, ptr %13, align 4
  %63 = icmp eq i32 %61, %62
  br i1 %63, label %64, label %73

64:                                               ; preds = %60
  %65 = load i8, ptr %10, align 1
  %66 = trunc i8 %65 to i1
  br i1 %66, label %67, label %72

67:                                               ; preds = %64
  %68 = load ptr, ptr %4, align 8
  %69 = load ptr, ptr %12, align 8
  %70 = getelementptr inbounds %struct.df_reference_t, ptr %69, i32 0, i32 1
  %71 = load ptr, ptr %70, align 8
  call void @df_cell_append(ptr noundef %68, ptr noundef %71)
  br label %72

72:                                               ; preds = %67, %64
  br label %88

73:                                               ; preds = %60
  %74 = load i32, ptr %13, align 4
  store i32 %74, ptr %9, align 4
  %75 = load ptr, ptr %6, align 8
  %76 = load i32, ptr %13, align 4
  %77 = load i32, ptr %7, align 4
  %78 = call zeroext i1 @drange_contains_layer(ptr noundef %75, i32 noundef %76, i32 noundef %77)
  %79 = zext i1 %78 to i8
  store i8 %79, ptr %10, align 1
  %80 = load i8, ptr %10, align 1
  %81 = trunc i8 %80 to i1
  br i1 %81, label %82, label %87

82:                                               ; preds = %73
  %83 = load ptr, ptr %4, align 8
  %84 = load ptr, ptr %12, align 8
  %85 = getelementptr inbounds %struct.df_reference_t, ptr %84, i32 0, i32 1
  %86 = load ptr, ptr %85, align 8
  call void @df_cell_append(ptr noundef %83, ptr noundef %86)
  br label %87

87:                                               ; preds = %82, %73
  br label %88

88:                                               ; preds = %87, %72
  br label %89

89:                                               ; preds = %88, %55
  %90 = load i32, ptr %11, align 4
  %91 = add i32 %90, 1
  store i32 %91, ptr %11, align 4
  br label %36, !llvm.loop !27

92:                                               ; preds = %36, %21
  ret void
}

; Function Attrs: nounwind uwtable
define internal zeroext i1 @read_reference(ptr noundef %0, ptr noundef %1, ptr noundef %2, ptr noundef %3) #0 {
  %5 = alloca i1, align 1
  %6 = alloca ptr, align 8
  %7 = alloca ptr, align 8
  %8 = alloca ptr, align 8
  %9 = alloca ptr, align 8
  %10 = alloca ptr, align 8
  %11 = alloca ptr, align 8
  %12 = alloca ptr, align 8
  %13 = alloca i8, align 1
  %14 = alloca ptr, align 8
  %15 = alloca i32, align 4
  store ptr %0, ptr %6, align 8
  store ptr %1, ptr %7, align 8
  store ptr %2, ptr %8, align 8
  store ptr %3, ptr %9, align 8
  store ptr null, ptr %12, align 8
  %16 = load ptr, ptr %7, align 8
  %17 = getelementptr inbounds %struct.dfvm_value_t, ptr %16, i32 0, i32 1
  %18 = load ptr, ptr %17, align 8
  store ptr %18, ptr %14, align 8
  %19 = load ptr, ptr %7, align 8
  %20 = getelementptr inbounds %struct.dfvm_value_t, ptr %19, i32 0, i32 0
  %21 = load i32, ptr %20, align 8
  %22 = icmp eq i32 %21, 3
  %23 = zext i1 %22 to i8
  store i8 %23, ptr %13, align 1
  %24 = load ptr, ptr %8, align 8
  %25 = getelementptr inbounds %struct.dfvm_value_t, ptr %24, i32 0, i32 1
  %26 = load i32, ptr %25, align 8
  store i32 %26, ptr %15, align 4
  %27 = load ptr, ptr %9, align 8
  %28 = icmp ne ptr %27, null
  br i1 %28, label %29, label %33

29:                                               ; preds = %4
  %30 = load ptr, ptr %9, align 8
  %31 = getelementptr inbounds %struct.dfvm_value_t, ptr %30, i32 0, i32 1
  %32 = load ptr, ptr %31, align 8
  store ptr %32, ptr %12, align 8
  br label %33

33:                                               ; preds = %29, %4
  %34 = load ptr, ptr %6, align 8
  %35 = getelementptr inbounds %struct.epan_dfilter, ptr %34, i32 0, i32 2
  %36 = load ptr, ptr %35, align 8
  %37 = load i32, ptr %15, align 4
  %38 = sext i32 %37 to i64
  %39 = getelementptr %struct.df_cell_t, ptr %36, i64 %38
  store ptr %39, ptr %10, align 8
  %40 = load ptr, ptr %10, align 8
  %41 = call zeroext i1 @df_cell_is_null(ptr noundef %40)
  br i1 %41, label %46, label %42

42:                                               ; preds = %33
  %43 = load ptr, ptr %10, align 8
  %44 = call zeroext i1 @df_cell_is_empty(ptr noundef %43)
  %45 = xor i1 %44, true
  store i1 %45, ptr %5, align 1
  br label %74

46:                                               ; preds = %33
  %47 = load i8, ptr %13, align 1
  %48 = trunc i8 %47 to i1
  br i1 %48, label %49, label %53

49:                                               ; preds = %46
  %50 = load ptr, ptr %6, align 8
  %51 = getelementptr inbounds %struct.epan_dfilter, ptr %50, i32 0, i32 9
  %52 = load ptr, ptr %51, align 8
  br label %57

53:                                               ; preds = %46
  %54 = load ptr, ptr %6, align 8
  %55 = getelementptr inbounds %struct.epan_dfilter, ptr %54, i32 0, i32 8
  %56 = load ptr, ptr %55, align 8
  br label %57

57:                                               ; preds = %53, %49
  %58 = phi ptr [ %52, %49 ], [ %56, %53 ]
  %59 = load ptr, ptr %14, align 8
  %60 = call ptr @g_hash_table_lookup(ptr noundef %58, ptr noundef %59)
  store ptr %60, ptr %11, align 8
  %61 = load ptr, ptr %11, align 8
  %62 = icmp eq ptr %61, null
  br i1 %62, label %68, label %63

63:                                               ; preds = %57
  %64 = load ptr, ptr %11, align 8
  %65 = getelementptr inbounds %struct._GPtrArray, ptr %64, i32 0, i32 1
  %66 = load i32, ptr %65, align 8
  %67 = icmp eq i32 %66, 0
  br i1 %67, label %68, label %69

68:                                               ; preds = %63, %57
  store i1 false, ptr %5, align 1
  br label %74

69:                                               ; preds = %63
  %70 = load ptr, ptr %10, align 8
  call void @df_cell_init(ptr noundef %70, i1 noundef zeroext false)
  %71 = load ptr, ptr %10, align 8
  %72 = load ptr, ptr %11, align 8
  %73 = load ptr, ptr %12, align 8
  call void @filter_refs_fvalues(ptr noundef %71, ptr noundef %72, ptr noundef %73)
  store i1 true, ptr %5, align 1
  br label %74

74:                                               ; preds = %69, %68, %42
  %75 = load i1, ptr %5, align 1
  ret i1 %75
}