; Function Attrs: nounwind uwtable
define internal fastcc zeroext i1 @read_reference(ptr noundef readonly captures(none) %0, i32 %.0.val, ptr %.8.val, i32 %.8.val1, ptr noundef readonly %1) unnamed_addr #2 {
  %3 = icmp eq i32 %.0.val, 3
  %.not = icmp eq ptr %1, null
  br i1 %.not, label %7, label %4

4:                                                ; preds = %2
  %5 = getelementptr inbounds nuw i8, ptr %1, i64 8
  %6 = load ptr, ptr %5, align 8
  br label %7

7:                                                ; preds = %4, %2
  %.019 = phi ptr [ %6, %4 ], [ null, %2 ]
  %8 = getelementptr inbounds nuw i8, ptr %0, i64 16
  %9 = load ptr, ptr %8, align 8
  %10 = sext i32 %.8.val1 to i64
  %11 = getelementptr %struct.df_cell_t, ptr %9, i64 %10
  %12 = tail call zeroext i1 @df_cell_is_null(ptr noundef %11) #11
  br i1 %12, label %16, label %13

13:                                               ; preds = %7
  %14 = tail call zeroext i1 @df_cell_is_empty(ptr noundef %11) #11
  %15 = xor i1 %14, true
  br label %filter_refs_fvalues.exit

16:                                               ; preds = %7
  %.in.v = select i1 %3, i64 72, i64 64
  %.in = getelementptr inbounds nuw i8, ptr %0, i64 %.in.v
  %17 = load ptr, ptr %.in, align 8
  %18 = tail call ptr @g_hash_table_lookup(ptr noundef %17, ptr noundef %.8.val) #11
  %19 = icmp eq ptr %18, null
  br i1 %19, label %filter_refs_fvalues.exit, label %20

20:                                               ; preds = %16
  %21 = getelementptr inbounds nuw i8, ptr %18, i64 8
  %22 = load i32, ptr %21, align 8
  %23 = icmp eq i32 %22, 0
  br i1 %23, label %filter_refs_fvalues.exit, label %24

24:                                               ; preds = %20
  tail call void @df_cell_init(ptr noundef %11, i1 noundef zeroext false) #11
  %25 = load i32, ptr %21, align 8
  %26 = icmp eq i32 %25, 0
  br i1 %26, label %filter_refs_fvalues.exit, label %.lr.ph.i

.lr.ph.i:                                         ; preds = %24
  %27 = load ptr, ptr %18, align 8
  %28 = add i32 %25, -1
  %29 = zext i32 %28 to i64
  %30 = getelementptr ptr, ptr %27, i64 %29
  %31 = load ptr, ptr %30, align 8
  %32 = getelementptr inbounds nuw i8, ptr %31, i64 16
  %33 = load i32, ptr %32, align 8
  %34 = icmp eq ptr %.019, null
  %35 = add i32 %33, 1
  br i1 %34, label %drange_contains_layer.exit.thread.us.i, label %.lr.ph.split.i

drange_contains_layer.exit.thread.us.i:           ; preds = %.lr.ph.i, %drange_contains_layer.exit.thread.us.i
  %indvars.iv37.i = phi i64 [ %indvars.iv.next38.i, %drange_contains_layer.exit.thread.us.i ], [ 0, %.lr.ph.i ]
  %36 = load ptr, ptr %18, align 8
  %37 = getelementptr ptr, ptr %36, i64 %indvars.iv37.i
  %38 = load ptr, ptr %37, align 8
  %39 = getelementptr inbounds nuw i8, ptr %38, i64 8
  %40 = load ptr, ptr %39, align 8
  tail call void @df_cell_append(ptr noundef %11, ptr noundef %40) #11
  %indvars.iv.next38.i = add nuw nsw i64 %indvars.iv37.i, 1
  %41 = load i32, ptr %21, align 8
  %42 = zext i32 %41 to i64
  %43 = icmp samesign ult i64 %indvars.iv.next38.i, %42
  br i1 %43, label %drange_contains_layer.exit.thread.us.i, label %filter_refs_fvalues.exit, !llvm.loop !27

.lr.ph.split.i:                                   ; preds = %.lr.ph.i, %drange_contains_layer.exit.thread.i
  %44 = phi i32 [ %73, %drange_contains_layer.exit.thread.i ], [ %25, %.lr.ph.i ]
  %indvars.iv.i = phi i64 [ %indvars.iv.next.i, %drange_contains_layer.exit.thread.i ], [ 0, %.lr.ph.i ]
  %.035.i = phi i32 [ %.1.i, %drange_contains_layer.exit.thread.i ], [ -1, %.lr.ph.i ]
  %.02633.i = phi i1 [ %.127.i, %drange_contains_layer.exit.thread.i ], [ false, %.lr.ph.i ]
  %45 = load ptr, ptr %18, align 8
  %46 = getelementptr ptr, ptr %45, i64 %indvars.iv.i
  %47 = load ptr, ptr %46, align 8
  %48 = getelementptr inbounds nuw i8, ptr %47, i64 16
  %49 = load i32, ptr %48, align 8
  %50 = icmp eq i32 %.035.i, %49
  br i1 %50, label %51, label %52

51:                                               ; preds = %.lr.ph.split.i
  br i1 %.02633.i, label %drange_contains_layer.exit.thread.sink.split.i, label %drange_contains_layer.exit.thread.i

52:                                               ; preds = %.lr.ph.split.i
  %.02028.i.i = load ptr, ptr %.019, align 8
  %.not29.not.i.i = icmp eq ptr %.02028.i.i, null
  br i1 %.not29.not.i.i, label %drange_contains_layer.exit.thread.i, label %.lr.ph.i.i

53:                                               ; preds = %70
  %54 = getelementptr inbounds nuw i8, ptr %.02030.i.i, i64 8
  %.020.i.i = load ptr, ptr %54, align 8
  %.not.not.i.i = icmp eq ptr %.020.i.i, null
  br i1 %.not.not.i.i, label %drange_contains_layer.exit.thread.i, label %.lr.ph.i.i, !llvm.loop !28

.lr.ph.i.i:                                       ; preds = %52, %53
  %.02030.i.i = phi ptr [ %.020.i.i, %53 ], [ %.02028.i.i, %52 ]
  %55 = load ptr, ptr %.02030.i.i, align 8
  %56 = load i32, ptr %55, align 4
  %57 = icmp slt i32 %56, 0
  %58 = select i1 %57, i32 %35, i32 0
  %.019.i.i = add i32 %58, %56
  %59 = getelementptr inbounds nuw i8, ptr %55, i64 12
  %60 = load i32, ptr %59, align 4
  switch i32 %60, label %69 [
    i32 1, label %61
    i32 2, label %66
    i32 3, label %70
  ]

61:                                               ; preds = %.lr.ph.i.i
  %62 = getelementptr inbounds nuw i8, ptr %55, i64 4
  %63 = load i32, ptr %62, align 4
  %64 = add i32 %.019.i.i, -1
  %65 = add i32 %64, %63
  br label %70

66:                                               ; preds = %.lr.ph.i.i
  %67 = getelementptr inbounds nuw i8, ptr %55, i64 8
  %68 = load i32, ptr %67, align 4
  br label %70

69:                                               ; preds = %.lr.ph.i.i
  tail call void (ptr, i32, ptr, i64, ptr, ptr, ...) @ws_log_fatal_full(ptr noundef nonnull @.str.57, i32 noundef 7, ptr noundef nonnull @.str.58, i64 noundef 769, ptr noundef nonnull @__func__.drange_contains_layer, ptr noundef nonnull @.str.60) #13
  unreachable

70:                                               ; preds = %66, %61, %.lr.ph.i.i
  %.0.i.i = phi i32 [ %65, %61 ], [ %68, %66 ], [ 2147483647, %.lr.ph.i.i ]
  %.not25.i.i = icmp sge i32 %49, %.019.i.i
  %.not26.i.i = icmp sle i32 %49, %.0.i.i
  %or.cond.not.i.i = select i1 %.not25.i.i, i1 %.not26.i.i, i1 false
  br i1 %or.cond.not.i.i, label %drange_contains_layer.exit.thread.sink.split.i, label %53

drange_contains_layer.exit.thread.sink.split.i:   ; preds = %70, %51
  %.1.ph.i = phi i32 [ %.035.i, %51 ], [ %49, %70 ]
  %71 = getelementptr inbounds nuw i8, ptr %47, i64 8
  %72 = load ptr, ptr %71, align 8
  tail call void @df_cell_append(ptr noundef %11, ptr noundef %72) #11
  %.pre = load i32, ptr %21, align 8
  br label %drange_contains_layer.exit.thread.i

drange_contains_layer.exit.thread.i:              ; preds = %53, %drange_contains_layer.exit.thread.sink.split.i, %52, %51
  %73 = phi i32 [ %44, %51 ], [ %44, %52 ], [ %.pre, %drange_contains_layer.exit.thread.sink.split.i ], [ %44, %53 ]
  %.127.i = phi i1 [ false, %51 ], [ false, %52 ], [ true, %drange_contains_layer.exit.thread.sink.split.i ], [ false, %53 ]
  %.1.i = phi i32 [ %.035.i, %51 ], [ %49, %52 ], [ %.1.ph.i, %drange_contains_layer.exit.thread.sink.split.i ], [ %49, %53 ]
  %indvars.iv.next.i = add nuw nsw i64 %indvars.iv.i, 1
  %74 = zext i32 %73 to i64
  %75 = icmp samesign ult i64 %indvars.iv.next.i, %74
  br i1 %75, label %.lr.ph.split.i, label %filter_refs_fvalues.exit, !llvm.loop !27

filter_refs_fvalues.exit:                         ; preds = %drange_contains_layer.exit.thread.i, %drange_contains_layer.exit.thread.us.i, %24, %16, %20, %13
  %.0 = phi i1 [ %15, %13 ], [ false, %20 ], [ false, %16 ], [ true, %24 ], [ true, %drange_contains_layer.exit.thread.us.i ], [ true, %drange_contains_layer.exit.thread.i ]
  ret i1 %.0
}